Certificate:
    Data:
        Version: 3 (0x2)
        Serial Number:
            27:44:ed:7e:ce:cf:9f:dd:38:e8:41:e6:d8:50:72:77
        Signature Algorithm: sha256WithRSAEncryption
        Issuer: CN=y
        Validity
            Not Before: Oct 26 11:59:14 2022 GMT
            Not After : Oct 23 11:59:14 2032 GMT
        Subject: C=ES, O=Telefonica I+D, CN=test_nef01
        Subject Public Key Info:
            Public Key Algorithm: rsaEncryption
                RSA Public-Key: (2048 bit)
                Modulus:
                    00:e3:13:5a:ce:71:05:19:e7:32:5d:d2:b3:af:6f:
                    5a:fe:8b:a2:3b:36:87:e5:85:95:d9:a3:51:8c:84:
                    e0:44:63:ed:5f:f8:0f:0a:bb:ed:d8:c1:7a:cb:90:
                    e8:f0:5f:13:14:2c:15:d8:03:6e:e2:fa:46:f5:e9:
                    15:ec:b5:3d:b1:f1:c0:7c:11:a9:92:04:cc:38:f8:
                    71:e9:cc:d6:71:f4:0b:e3:4f:f4:fd:42:68:d5:ca:
                    ee:62:dd:b2:11:ec:24:9c:3f:98:c7:a2:79:68:9b:
                    21:95:35:0f:cc:6a:99:2a:dd:97:27:45:bf:5c:99:
                    12:84:a1:53:b3:af:ae:91:18:5b:4d:1c:97:20:33:
                    24:15:ce:a3:6d:aa:5b:ef:7a:b3:4a:32:7a:8d:e6:
                    b1:2c:3c:d3:68:cf:64:3d:a9:0b:6d:cf:68:51:54:
                    78:b7:47:a0:c2:3b:3b:44:21:dd:c9:50:a7:16:04:
                    3e:0e:2c:aa:e0:8d:ef:4c:33:ba:7d:f8:56:35:0f:
                    19:cd:07:f7:44:e6:2b:e0:74:75:50:bc:76:e1:ea:
                    59:d1:59:1e:fe:cf:a1:cd:d1:4b:8a:75:7f:d7:19:
                    68:04:66:89:90:d7:06:9e:e8:7b:ef:30:f6:10:6d:
                    0c:e4:15:cd:a1:8d:41:19:7b:5f:51:8d:80:de:03:
                    7e:63
                Exponent: 65537 (0x10001)
        X509v3 extensions:
            X509v3 Basic Constraints: 
                CA:FALSE
            X509v3 Subject Key Identifier: 
                F6:28:C1:8D:97:F2:81:B2:D3:DF:8C:D9:36:49:EE:E7:D9:D7:36:1E
            X509v3 Authority Key Identifier: 
                keyid:F8:B1:76:22:42:7F:F2:01:68:03:2F:71:44:A4:04:F1:DB:E4:F9:35
                DirName:/CN=y
                serial:34:B0:3B:12:9F:BE:2D:31:F6:95:56:49:19:84:41:71:E3:C7:23:41

            X509v3 Extended Key Usage: 
                TLS Web Client Authentication
            X509v3 Key Usage: 
                Digital Signature
    Signature Algorithm: sha256WithRSAEncryption
         40:2b:e1:e5:49:82:7c:28:85:2c:15:55:c3:42:5f:2c:37:4f:
         35:f0:6e:10:02:34:32:54:ed:2a:67:8d:7c:8b:2c:0e:5a:47:
         c7:e6:1d:2a:d6:ab:9f:b7:3b:fe:d4:4f:e1:7a:86:4e:38:01:
         45:4d:32:50:60:52:ff:dd:cd:67:10:6a:f0:9e:3d:aa:a4:5c:
         7b:b0:33:21:b7:23:cb:ca:f6:42:9a:96:a6:59:20:77:ee:98:
         33:31:1f:5c:d9:eb:2a:ad:cc:e8:3a:96:63:9d:29:35:8e:55:
         15:25:fa:a5:47:cf:92:1d:33:ce:e7:c9:aa:c3:72:06:7c:7f:
         7e:5f:db:b3:be:cd:a9:c0:83:ae:35:79:e0:77:c9:e1:16:0e:
         88:00:1b:90:d1:63:49:7f:df:d9:8f:b0:b1:bb:b2:ea:81:a2:
         6b:e2:99:ac:fa:95:bc:09:fa:24:81:28:e3:15:4c:0e:4a:a6:
         36:20:14:48:39:48:32:ee:08:de:ed:68:dc:10:b1:68:a7:ca:
         00:04:95:05:2e:fa:de:f8:94:79:a5:42:32:89:e7:ff:f8:03:
         63:4f:cb:27:26:ae:1e:a8:5b:29:52:ae:25:d0:f1:eb:70:d2:
         6b:00:5f:4d:ea:88:8e:17:fa:25:3e:00:79:23:3b:35:3e:76:
         59:ac:2e:04
-----BEGIN CERTIFICATE-----
MIIDajCCAlKgAwIBAgIQJ0Ttfs7Pn9046EHm2FBydzANBgkqhkiG9w0BAQsFADAM
MQowCAYDVQQDDAF5MB4XDTIyMTAyNjExNTkxNFoXDTMyMTAyMzExNTkxNFowOzEL
MAkGA1UEBhMCRVMxFzAVBgNVBAoMDlRlbGVmb25pY2EgSStEMRMwEQYDVQQDDAp0
ZXN0X25lZjAxMIIBIjANBgkqhkiG9w0BAQEFAAOCAQ8AMIIBCgKCAQEA4xNaznEF
GecyXdKzr29a/ouiOzaH5YWV2aNRjITgRGPtX/gPCrvt2MF6y5Do8F8TFCwV2ANu
4vpG9ekV7LU9sfHAfBGpkgTMOPhx6czWcfQL40/0/UJo1cruYt2yEewknD+Yx6J5
aJshlTUPzGqZKt2XJ0W/XJkShKFTs6+ukRhbTRyXIDMkFc6jbapb73qzSjJ6jeax
LDzTaM9kPakLbc9oUVR4t0egwjs7RCHdyVCnFgQ+Diyq4I3vTDO6ffhWNQ8ZzQf3
ROYr4HR1ULx24epZ0Vke/s+hzdFLinV/1xloBGaJkNcGnuh77zD2EG0M5BXNoY1B
GXtfUY2A3gN+YwIDAQABo4GYMIGVMAkGA1UdEwQCMAAwHQYDVR0OBBYEFPYowY2X
8oGy09+M2TZJ7ufZ1zYeMEcGA1UdIwRAMD6AFPixdiJCf/IBaAMvcUSkBPHb5Pk1
oRCkDjAMMQowCAYDVQQDDAF5ghQ0sDsSn74tMfaVVkkZhEFx48cjQTATBgNVHSUE
DDAKBggrBgEFBQcDAjALBgNVHQ8EBAMCB4AwDQYJKoZIhvcNAQELBQADggEBAEAr
4eVJgnwohSwVVcNCXyw3TzXwbhACNDJU7SpnjXyLLA5aR8fmHSrWq5+3O/7UT+F6
hk44AUVNMlBgUv/dzWcQavCePaqkXHuwMyG3I8vK9kKalqZZIHfumDMxH1zZ6yqt
zOg6lmOdKTWOVRUl+qVHz5IdM87nyarDcgZ8f35f27O+zanAg641eeB3yeEWDogA
G5DRY0l/39mPsLG7suqBomvimaz6lbwJ+iSBKOMVTA5KpjYgFEg5SDLuCN7taNwQ
sWinygAElQUu+t74lHmlQjKJ5//4A2NPyycmrh6oWylSriXQ8etw0msAX03qiI4X
+iU+AHkjOzU+dlmsLgQ=
-----END CERTIFICATE-----
